target datalayout = "e-m:e-p270:32:32-p271:32:32-p272:64:64-i64:64-i128:128-f80:128-n8:16:32:64-S128"
target triple = "x86_64-pc-linux-gnu"

%class.ZPage = type { i8, i8, i8, i8, i32, i32, %class.ZVirtualMemory, i64, %class.ZLiveMap, %class.ZRememberedSet, i64, %class.ZPhysicalMemory, %class.ZListNode }
%class.ZVirtualMemory = type { i64, i64 }
%class.ZLiveMap = type { i32, i32, i64, i64, i64, %class.ZBitMap, i64 }
%class.ZBitMap = type { %class.CHeapBitMap.base, [7 x i8] }
%class.CHeapBitMap.base = type <{ %class.GrowableBitMap, i8 }>
%class.GrowableBitMap = type { %class.BitMap }
%class.BitMap = type { ptr, i64 }
%class.ZRememberedSet = type { [2 x %class.ZMovableBitMap] }
%class.ZMovableBitMap = type { %class.CHeapBitMap.base, [7 x i8] }
%class.ZPhysicalMemory = type { %class.GrowableArrayCHeap }
%class.GrowableArrayCHeap = type { %class.GrowableArrayWithAllocator }
%class.GrowableArrayWithAllocator = type { %class.GrowableArrayView }
%class.GrowableArrayView = type { %class.GrowableArrayBase, ptr }
%class.GrowableArrayBase = type { i32, i32 }
%class.ZListNode = type { ptr, ptr }

@_ZN11ZGeneration6_youngE = external global ptr, align 8
@_ZN11ZGeneration4_oldE = external global ptr, align 8

; Function Attrs: mustprogress nounwind uwtable
define linkonce_odr hidden noundef ptr @_ZN11ZGeneration10generationE13ZGenerationId(i8 noundef zeroext %0) #1 comdat align 2 {
  %2 = alloca ptr, align 8
  %3 = alloca i8, align 1
  store i8 %0, ptr %3, align 1
  %4 = load i8, ptr %3, align 1
  %5 = icmp eq i8 %4, 0
  br i1 %5, label %6, label %8

6:                                                ; preds = %1
  %7 = load ptr, ptr @_ZN11ZGeneration6_youngE, align 8
  store ptr %7, ptr %2, align 8
  br label %10

8:                                                ; preds = %1
  %9 = load ptr, ptr @_ZN11ZGeneration4_oldE, align 8
  store ptr %9, ptr %2, align 8
  br label %10

10:                                               ; preds = %8, %6
  %11 = load ptr, ptr %2, align 8
  ret ptr %11
}

; Function Attrs: mustprogress nounwind uwtable
define hidden noundef ptr @_ZNK5ZPage10generationEv(ptr noundef nonnull align 8 dereferenceable(192) %0) #1 align 2 {
  %2 = alloca ptr, align 8
  store ptr %0, ptr %2, align 8
  %3 = load ptr, ptr %2, align 8
  %4 = getelementptr inbounds %class.ZPage, ptr %3, i32 0, i32 1
  %5 = load i8, ptr %4, align 1
  %6 = call noundef ptr @_ZN11ZGeneration10generationE13ZGenerationId(i8 noundef zeroext %5)
  ret ptr %6
}